target datalayout = "e-m:e-p270:32:32-p271:32:32-p272:64:64-i64:64-i128:128-f80:128-n8:16:32:64-S128"
target triple = "x86_64-pc-linux-gnu"

%"class.Json::Value::Comments" = type { %"class.std::unique_ptr" }
%"class.std::unique_ptr" = type { %"struct.std::__uniq_ptr_data" }
%"struct.std::__uniq_ptr_data" = type { %"class.std::__uniq_ptr_impl" }
%"class.std::__uniq_ptr_impl" = type { %"class.std::tuple" }
%"class.std::tuple" = type { %"struct.std::_Tuple_impl" }
%"struct.std::_Tuple_impl" = type { %"struct.std::_Head_base.1" }
%"struct.std::_Head_base.1" = type { ptr }
%"class.std::__cxx11::basic_string" = type { %"struct.std::__cxx11::basic_string<char>::_Alloc_hider", i64, %union.anon.2 }
%"struct.std::__cxx11::basic_string<char>::_Alloc_hider" = type { ptr }
%union.anon.2 = type { i64, [8 x i8] }
%"struct.std::array" = type { [3 x %"class.std::__cxx11::basic_string"] }

; Function Attrs: mustprogress nounwind uwtable
define linkonce_odr dso_local noundef nonnull align 8 dereferenceable(8) ptr @_ZNSt10_Head_baseILm0EPSt5arrayINSt7__cxx1112basic_stringIcSt11char_traitsIcESaIcEEELm3EELb0EE7_M_headERKS9_(ptr noundef nonnull align 8 dereferenceable(8) %0) #5 comdat align 2 {
  %2 = alloca ptr, align 8
  store ptr %0, ptr %2, align 8
  %3 = load ptr, ptr %2, align 8
  %4 = getelementptr inbounds %"struct.std::_Head_base.1", ptr %3, i32 0, i32 0
  ret ptr %4
}

; Function Attrs: mustprogress nounwind uwtable
define linkonce_odr dso_local noundef nonnull align 8 dereferenceable(8) ptr @_ZNSt11_Tuple_implILm0EJPSt5arrayINSt7__cxx1112basic_stringIcSt11char_traitsIcESaIcEEELm3EESt14default_deleteIS7_EEE7_M_headERKSB_(ptr noundef nonnull align 8 dereferenceable(8) %0) #5 comdat align 2 {
  %2 = alloca ptr, align 8
  store ptr %0, ptr %2, align 8
  %3 = load ptr, ptr %2, align 8
  %4 = call noundef nonnull align 8 dereferenceable(8) ptr @_ZNSt10_Head_baseILm0EPSt5arrayINSt7__cxx1112basic_stringIcSt11char_traitsIcESaIcEEELm3EELb0EE7_M_headERKS9_(ptr noundef nonnull align 8 dereferenceable(8) %3) #3
  ret ptr %4
}

; Function Attrs: mustprogress nounwind uwtable
define linkonce_odr dso_local noundef nonnull align 8 dereferenceable(8) ptr @_ZSt12__get_helperILm0EPSt5arrayINSt7__cxx1112basic_stringIcSt11char_traitsIcESaIcEEELm3EEJSt14default_deleteIS7_EEERKT0_RKSt11_Tuple_implIXT_EJSB_DpT1_EE(ptr noundef nonnull align 8 dereferenceable(8) %0) #5 comdat {
  %2 = alloca ptr, align 8
  store ptr %0, ptr %2, align 8
  %3 = load ptr, ptr %2, align 8
  %4 = call noundef nonnull align 8 dereferenceable(8) ptr @_ZNSt11_Tuple_implILm0EJPSt5arrayINSt7__cxx1112basic_stringIcSt11char_traitsIcESaIcEEELm3EESt14default_deleteIS7_EEE7_M_headERKSB_(ptr noundef nonnull align 8 dereferenceable(8) %3) #3
  ret ptr %4
}

; Function Attrs: mustprogress nounwind uwtable
define linkonce_odr dso_local noundef nonnull align 8 dereferenceable(8) ptr @_ZSt3getILm0EJPSt5arrayINSt7__cxx1112basic_stringIcSt11char_traitsIcESaIcEEELm3EESt14default_deleteIS7_EEERKNSt13tuple_elementIXT_ESt5tupleIJDpT0_EEE4typeERKSF_(ptr noundef nonnull align 8 dereferenceable(8) %0) #5 comdat {
  %2 = alloca ptr, align 8
  store ptr %0, ptr %2, align 8
  %3 = load ptr, ptr %2, align 8
  %4 = call noundef nonnull align 8 dereferenceable(8) ptr @_ZSt12__get_helperILm0EPSt5arrayINSt7__cxx1112basic_stringIcSt11char_traitsIcESaIcEEELm3EEJSt14default_deleteIS7_EEERKT0_RKSt11_Tuple_implIXT_EJSB_DpT1_EE(ptr noundef nonnull align 8 dereferenceable(8) %3) #3
  ret ptr %4
}

; Function Attrs: mustprogress nounwind uwtable
define linkonce_odr dso_local noundef ptr @_ZNKSt15__uniq_ptr_implISt5arrayINSt7__cxx1112basic_stringIcSt11char_traitsIcESaIcEEELm3EESt14default_deleteIS7_EE6_M_ptrEv(ptr noundef nonnull align 8 dereferenceable(8) %0) #5 comdat align 2 {
  %2 = alloca ptr, align 8
  store ptr %0, ptr %2, align 8
  %3 = load ptr, ptr %2, align 8
  %4 = getelementptr inbounds %"class.std::__uniq_ptr_impl", ptr %3, i32 0, i32 0
  %5 = call noundef nonnull align 8 dereferenceable(8) ptr @_ZSt3getILm0EJPSt5arrayINSt7__cxx1112basic_stringIcSt11char_traitsIcESaIcEEELm3EESt14default_deleteIS7_EEERKNSt13tuple_elementIXT_ESt5tupleIJDpT0_EEE4typeERKSF_(ptr noundef nonnull align 8 dereferenceable(8) %4) #3
  %6 = load ptr, ptr %5, align 8
  ret ptr %6
}

; Function Attrs: mustprogress nounwind uwtable
define linkonce_odr dso_local noundef nonnull align 8 dereferenceable(32) ptr @_ZNSt14__array_traitsINSt7__cxx1112basic_stringIcSt11char_traitsIcESaIcEEELm3EE6_S_refERA3_KS5_m(ptr noundef nonnull align 8 dereferenceable(96) %0, i64 noundef %1) #5 comdat align 2 {
  %3 = alloca ptr, align 8
  %4 = alloca i64, align 8
  store ptr %0, ptr %3, align 8
  store i64 %1, ptr %4, align 8
  %5 = load ptr, ptr %3, align 8
  %6 = load i64, ptr %4, align 8
  %7 = getelementptr inbounds [3 x %"class.std::__cxx11::basic_string"], ptr %5, i64 0, i64 %6
  ret ptr %7
}

; Function Attrs: mustprogress nounwind uwtable
define linkonce_odr dso_local noundef ptr @_ZNKSt10unique_ptrISt5arrayINSt7__cxx1112basic_stringIcSt11char_traitsIcESaIcEEELm3EESt14default_deleteIS7_EE3getEv(ptr noundef nonnull align 8 dereferenceable(8) %0) #5 comdat align 2 {
  %2 = alloca ptr, align 8
  store ptr %0, ptr %2, align 8
  %3 = load ptr, ptr %2, align 8
  %4 = getelementptr inbounds %"class.std::unique_ptr", ptr %3, i32 0, i32 0
  %5 = call noundef ptr @_ZNKSt15__uniq_ptr_implISt5arrayINSt7__cxx1112basic_stringIcSt11char_traitsIcESaIcEEELm3EESt14default_deleteIS7_EE6_M_ptrEv(ptr noundef nonnull align 8 dereferenceable(8) %4) #3
  ret ptr %5
}

; Function Attrs: mustprogress nounwind uwtable
define linkonce_odr dso_local noundef nonnull align 8 dereferenceable(32) ptr @_ZNSt5arrayINSt7__cxx1112basic_stringIcSt11char_traitsIcESaIcEEELm3EEixEm(ptr noundef nonnull align 8 dereferenceable(96) %0, i64 noundef %1) #5 comdat align 2 {
  %3 = alloca ptr, align 8
  %4 = alloca i64, align 8
  store ptr %0, ptr %3, align 8
  store i64 %1, ptr %4, align 8
  %5 = load ptr, ptr %3, align 8
  %6 = getelementptr inbounds %"struct.std::array", ptr %5, i32 0, i32 0
  %7 = load i64, ptr %4, align 8
  %8 = call noundef nonnull align 8 dereferenceable(32) ptr @_ZNSt14__array_traitsINSt7__cxx1112basic_stringIcSt11char_traitsIcESaIcEEELm3EE6_S_refERA3_KS5_m(ptr noundef nonnull align 8 dereferenceable(96) %6, i64 noundef %7) #3
  ret ptr %8
}

; Function Attrs: mustprogress nounwind uwtable
define linkonce_odr dso_local noundef nonnull align 8 dereferenceable(96) ptr @_ZNKSt10unique_ptrISt5arrayINSt7__cxx1112basic_stringIcSt11char_traitsIcESaIcEEELm3EESt14default_deleteIS7_EEdeEv(ptr noundef nonnull align 8 dereferenceable(8) %0) #5 comdat align 2 {
  %2 = alloca ptr, align 8
  store ptr %0, ptr %2, align 8
  %3 = load ptr, ptr %2, align 8
  br label %4

4:                                                ; preds = %1
  br label %5

5:                                                ; preds = %4
  br label %6

6:                                                ; preds = %5
  %7 = call noundef ptr @_ZNKSt10unique_ptrISt5arrayINSt7__cxx1112basic_stringIcSt11char_traitsIcESaIcEEELm3EESt14default_deleteIS7_EE3getEv(ptr noundef nonnull align 8 dereferenceable(8) %3) #3
  ret ptr %7
}

; Function Attrs: mustprogress nounwind uwtable
define linkonce_odr dso_local noundef zeroext i1 @_ZNKSt10unique_ptrISt5arrayINSt7__cxx1112basic_stringIcSt11char_traitsIcESaIcEEELm3EESt14default_deleteIS7_EEcvbEv(ptr noundef nonnull align 8 dereferenceable(8) %0) #5 comdat align 2 {
  %2 = alloca ptr, align 8
  store ptr %0, ptr %2, align 8
  %3 = load ptr, ptr %2, align 8
  %4 = call noundef ptr @_ZNKSt10unique_ptrISt5arrayINSt7__cxx1112basic_stringIcSt11char_traitsIcESaIcEEELm3EESt14default_deleteIS7_EE3getEv(ptr noundef nonnull align 8 dereferenceable(8) %3) #3
  %5 = icmp eq ptr %4, null
  %6 = select i1 %5, i1 false, i1 true
  ret i1 %6
}

; Function Attrs: mustprogress nounwind uwtable
define dso_local noundef zeroext i1 @_ZNK4Json5Value8Comments3hasENS_16CommentPlacementE(ptr noundef nonnull align 8 dereferenceable(8) %0, i32 noundef %1) #5 align 2 {
  %3 = alloca ptr, align 8
  %4 = alloca i32, align 4
  store ptr %0, ptr %3, align 8
  store i32 %1, ptr %4, align 4
  %5 = load ptr, ptr %3, align 8
  %6 = getelementptr inbounds %"class.Json::Value::Comments", ptr %5, i32 0, i32 0
  %7 = call noundef zeroext i1 @_ZNKSt10unique_ptrISt5arrayINSt7__cxx1112basic_stringIcSt11char_traitsIcESaIcEEELm3EESt14default_deleteIS7_EEcvbEv(ptr noundef nonnull align 8 dereferenceable(8) %6) #3
  br i1 %7, label %8, label %16

8:                                                ; preds = %2
  %9 = getelementptr inbounds %"class.Json::Value::Comments", ptr %5, i32 0, i32 0
  %10 = call noundef nonnull align 8 dereferenceable(96) ptr @_ZNKSt10unique_ptrISt5arrayINSt7__cxx1112basic_stringIcSt11char_traitsIcESaIcEEELm3EESt14default_deleteIS7_EEdeEv(ptr noundef nonnull align 8 dereferenceable(8) %9) #3
  %11 = load i32, ptr %4, align 4
  %12 = zext i32 %11 to i64
  %13 = call noundef nonnull align 8 dereferenceable(32) ptr @_ZNSt5arrayINSt7__cxx1112basic_stringIcSt11char_traitsIcESaIcEEELm3EEixEm(ptr noundef nonnull align 8 dereferenceable(96) %10, i64 noundef %12) #3
  %14 = call noundef zeroext i1 @_ZNKSt7__cxx1112basic_stringIcSt11char_traitsIcESaIcEE5emptyEv(ptr noundef nonnull align 8 dereferenceable(32) %13) #3
  %15 = xor i1 %14, true
  br label %16

16:                                               ; preds = %8, %2
  %17 = phi i1 [ false, %2 ], [ %15, %8 ]
  ret i1 %17
}