; Function Attrs: mustprogress nounwind uwtable
define dso_local noundef zeroext i1 @_ZNK4Json5Value8Comments3hasENS_16CommentPlacementE(ptr nocapture noundef nonnull readonly align 8 dereferenceable(8) %0, i32 noundef %1) local_unnamed_addr #14 align 2 {
  %3 = load ptr, ptr %0, align 8
  %.not = icmp eq ptr %3, null
  br i1 %.not, label %9, label %4

4:                                                ; preds = %2
  %5 = zext i32 %1 to i64
  %6 = getelementptr inbounds [3 x %"class.std::__cxx11::basic_string"], ptr %3, i64 0, i64 %5
  %7 = tail call noundef zeroext i1 @_ZNKSt7__cxx1112basic_stringIcSt11char_traitsIcESaIcEE5emptyEv(ptr noundef nonnull align 8 dereferenceable(32) %6) #35
  %8 = xor i1 %7, true
  br label %9

9:                                                ; preds = %4, %2
  %10 = phi i1 [ false, %2 ], [ %8, %4 ]
  ret i1 %10
}